Certificate:
    Data:
        Version: 3 (0x2)
        Serial Number: 1 (0x1)
    Signature Algorithm: sha256WithRSAEncryption
        Issuer: C=FR, ST=Radius, L=Somewhere, O=Example Inc./emailAddress=admin@example.org, CN=Example Certificate Authority
        Validity
            Not Before: Jan 21 10:20:32 2016 GMT
            Not After : Mar 21 10:20:32 2016 GMT
        Subject: C=FR, ST=Radius, O=Example Inc., CN=Example Server Certificate/emailAddress=admin@example.org
        Subject Public Key Info:
            Public Key Algorithm: rsaEncryption
                Public-Key: (2048 bit)
                Modulus:
                    00:c2:18:58:a6:53:ba:13:24:7a:57:b2:e3:72:15:
                    e7:72:74:26:56:f8:1e:b3:5e:9a:f5:44:47:ee:84:
                    ae:10:93:c1:81:3f:89:3e:1e:e5:d8:98:36:73:7d:
                    69:96:c3:90:d9:85:f5:38:4a:50:69:a6:6d:50:ed:
                    ff:a6:80:7e:03:0f:02:cd:f0:8c:ca:21:36:cb:11:
                    97:55:f7:04:2a:d7:18:49:1e:4d:23:19:6f:5b:d5:
                    12:c9:ff:45:19:3f:30:bb:90:93:a6:6c:84:ee:b2:
                    1f:36:95:cf:32:e5:3d:4b:73:35:a8:c7:92:93:5f:
                    20:b1:c6:54:5a:ed:79:03:fe:e9:d6:25:7b:47:68:
                    69:78:13:bd:3c:26:eb:3d:1f:e4:c9:dc:20:c7:29:
                    f2:e9:d8:2b:03:bd:61:dd:e4:d7:fc:bb:00:de:d4:
                    5e:1c:1f:82:69:20:83:1d:d4:d3:da:8f:cf:2f:54:
                    f6:30:6d:56:d1:fa:b6:a0:e4:07:b2:4f:87:a1:52:
                    1f:06:b7:b4:65:9c:ac:28:5c:a8:0a:0e:ff:64:75:
                    06:8c:83:ec:86:85:8d:59:89:84:e5:0b:a2:14:ca:
                    15:6f:43:04:1e:ea:c9:07:b5:43:01:0f:dc:a5:16:
                    de:c3:ec:2e:b8:70:99:e3:d4:be:20:0f:bc:ce:bd:
                    3a:c5
                Exponent: 65537 (0x10001)
        X509v3 extensions:
            X509v3 Extended Key Usage: 
                TLS Web Server Authentication
            X509v3 CRL Distribution Points: 

                Full Name:
                  URI:http://www.example.com/example_ca.crl

    Signature Algorithm: sha256WithRSAEncryption
         59:14:88:04:b9:f0:aa:78:9c:df:25:46:82:7f:1f:63:4f:13:
         2f:32:64:65:33:67:a0:d4:6c:73:4b:8a:9e:65:37:3d:65:52:
         35:4e:e5:ec:18:d8:ed:3d:f4:aa:d6:f0:46:53:30:c9:a2:4c:
         0a:2a:69:47:e0:9c:aa:09:ea:9f:8c:10:33:ca:85:d0:b2:92:
         9b:bf:b0:f6:1a:9c:92:a6:5c:c7:91:1c:b1:c9:d7:32:bc:dd:
         c9:48:d9:21:18:93:9e:49:14:ea:46:b9:c3:db:f7:e9:88:ca:
         a2:dd:52:0f:a5:aa:09:b8:24:0a:fd:4b:fa:8b:e9:8e:d6:e2:
         01:29:7b:65:f3:93:4d:69:ba:e3:0f:be:16:11:e4:55:8c:99:
         54:43:4c:db:81:65:0a:0b:25:da:46:d5:7c:36:ee:88:46:4a:
         24:01:ef:78:8f:b0:9f:2c:0e:42:00:f4:5c:c5:fa:14:1e:00:
         66:97:da:e7:fd:67:17:1e:82:6b:a2:42:74:bb:b1:3b:9c:8f:
         70:64:9f:87:28:13:b5:ad:97:07:34:58:3d:f9:47:dd:72:e6:
         f0:c5:d9:4b:93:44:f2:50:79:28:b5:fa:fd:9a:21:d1:3e:33:
         5c:ad:de:b0:46:c7:28:b4:74:77:87:12:ac:c6:ca:bc:fe:86:
         fc:24:0d:28
-----BEGIN CERTIFICATE-----
MIID2jCCAsKgAwIBAgIBATANBgkqhkiG9w0BAQsFADCBkzELMAkGA1UEBhMCRlIx
DzANBgNVBAgMBlJhZGl1czESMBAGA1UEBwwJU29tZXdoZXJlMRUwEwYDVQQKDAxF
eGFtcGxlIEluYy4xIDAeBgkqhkiG9w0BCQEWEWFkbWluQGV4YW1wbGUub3JnMSYw
JAYDVQQDDB1FeGFtcGxlIENlcnRpZmljYXRlIEF1dGhvcml0eTAeFw0xNjAxMjEx
MDIwMzJaFw0xNjAzMjExMDIwMzJaMHwxCzAJBgNVBAYTAkZSMQ8wDQYDVQQIDAZS
YWRpdXMxFTATBgNVBAoMDEV4YW1wbGUgSW5jLjEjMCEGA1UEAwwaRXhhbXBsZSBT
ZXJ2ZXIgQ2VydGlmaWNhdGUxIDAeBgkqhkiG9w0BCQEWEWFkbWluQGV4YW1wbGUu
b3JnMIIBIjANBgkqhkiG9w0BAQEFAAOCAQ8AMIIBCgKCAQEAwhhYplO6EyR6V7Lj
chXncnQmVvges16a9URH7oSuEJPBgT+JPh7l2Jg2c31plsOQ2YX1OEpQaaZtUO3/
poB+Aw8CzfCMyiE2yxGXVfcEKtcYSR5NIxlvW9USyf9FGT8wu5CTpmyE7rIfNpXP
MuU9S3M1qMeSk18gscZUWu15A/7p1iV7R2hpeBO9PCbrPR/kydwgxyny6dgrA71h
3eTX/LsA3tReHB+CaSCDHdTT2o/PL1T2MG1W0fq2oOQHsk+HoVIfBre0ZZysKFyo
Cg7/ZHUGjIPshoWNWYmE5QuiFMoVb0MEHurJB7VDAQ/cpRbew+wuuHCZ49S+IA+8
zr06xQIDAQABo08wTTATBgNVHSUEDDAKBggrBgEFBQcDATA2BgNVHR8ELzAtMCug
KaAnhiVodHRwOi8vd3d3LmV4YW1wbGUuY29tL2V4YW1wbGVfY2EuY3JsMA0GCSqG
SIb3DQEBCwUAA4IBAQBZFIgEufCqeJzfJUaCfx9jTxMvMmRlM2eg1GxzS4qeZTc9
ZVI1TuXsGNjtPfSq1vBGUzDJokwKKmlH4JyqCeqfjBAzyoXQspKbv7D2GpySplzH
kRyxydcyvN3JSNkhGJOeSRTqRrnD2/fpiMqi3VIPpaoJuCQK/Uv6i+mO1uIBKXtl
85NNabrjD74WEeRVjJlUQ0zbgWUKCyXaRtV8Nu6IRkokAe94j7CfLA5CAPRcxfoU
HgBml9rn/WcXHoJrokJ0u7E7nI9wZJ+HKBO1rZcHNFg9+UfdcubwxdlLk0TyUHko
tfr9miHRPjNcrd6wRscotHR3hxKsxsq8/ob8JA0o
-----END CERTIFICATE-----
