Certificate:
    Data:
        Version: 3 (0x2)
        Serial Number: 2 (0x2)
    Signature Algorithm: sha256WithRSAEncryption
        Issuer: C=FR, ST=Radius, L=Somewhere, O=Example Inc./emailAddress=admin@example.org, CN=Example Certificate Authority
        Validity
            Not Before: Jan 21 10:20:32 2016 GMT
            Not After : Mar 21 10:20:32 2016 GMT
        Subject: C=FR, ST=Radius, O=Example Inc., CN=user@example.org/emailAddress=user@example.org
        Subject Public Key Info:
            Public Key Algorithm: rsaEncryption
                Public-Key: (2048 bit)
                Modulus:
                    00:ed:8c:12:78:32:bd:13:04:0d:67:81:e3:a6:2e:
                    71:e5:93:62:c5:3a:80:24:b4:31:e5:a5:a0:a4:ea:
                    02:8f:a0:3c:5d:bb:a0:cb:52:db:f8:8e:bc:c7:c5:
                    c2:86:8c:7e:1d:dc:e2:9a:19:bc:48:7c:7f:5c:d6:
                    59:55:32:23:fd:a3:3a:5d:1e:69:61:5d:98:ac:a1:
                    f6:3a:3f:ce:21:06:2b:41:e6:15:be:b3:e7:84:55:
                    ba:c5:b5:f5:3a:27:33:3f:4a:b9:75:69:70:ca:39:
                    fc:6a:b4:7f:e0:ea:12:87:d1:51:c4:bb:4c:2a:aa:
                    a7:49:a4:68:85:c4:5e:6d:7e:8b:ba:75:81:d8:5f:
                    85:1f:3a:a6:0f:63:07:4c:47:36:92:50:63:68:13:
                    3f:09:82:82:fa:83:18:e6:05:cc:8d:63:f3:40:a4:
                    7a:b8:a7:04:95:3e:02:ef:5d:0b:e9:7b:af:6b:80:
                    d4:8c:02:12:72:36:c8:6d:3e:5c:2b:0b:2b:88:67:
                    db:3f:8e:86:f4:7f:7d:7d:b3:ce:eb:73:7f:e6:7c:
                    e1:55:47:2b:07:57:dc:dc:9b:0f:a4:8f:25:77:2f:
                    e7:2b:ac:59:9f:e8:fb:e9:0c:ba:6f:5f:c5:66:c6:
                    38:c8:f3:a4:d7:61:e1:8e:08:9b:71:7f:c5:2c:31:
                    f6:f7
                Exponent: 65537 (0x10001)
        X509v3 extensions:
            X509v3 Extended Key Usage: 
                TLS Web Client Authentication
            X509v3 CRL Distribution Points: 

                Full Name:
                  URI:http://www.example.com/example_ca.crl

    Signature Algorithm: sha256WithRSAEncryption
         5d:aa:4e:bf:79:8e:1f:f5:3e:f9:28:ce:36:ea:2a:9a:31:74:
         dd:d6:ba:d7:79:13:6e:32:09:78:64:03:df:ab:7b:0a:54:45:
         ec:4e:2a:fe:03:2a:7d:dd:25:18:93:40:ef:2f:93:95:81:42:
         cc:1b:82:2e:e6:03:81:48:be:9c:8d:56:33:b5:1e:6b:e2:69:
         a2:96:9d:f5:cf:5c:f3:6e:2a:a4:e6:15:21:6b:5d:4d:54:54:
         13:3b:39:54:a2:dd:10:e1:ad:c8:c3:04:25:6d:b0:11:2b:d3:
         56:df:7b:4f:a1:83:18:74:24:74:32:a1:e5:02:74:e8:79:b0:
         04:55:4a:ba:f2:f8:a2:2a:e2:6b:61:25:71:ce:ea:82:f7:d2:
         3a:ba:31:d5:59:48:0b:f3:36:73:4d:ef:8d:6e:e6:49:6a:dc:
         96:c3:fa:87:0f:fc:7f:63:8e:f1:9d:b4:f2:e1:53:19:ff:17:
         f8:a9:48:5f:4a:f6:dd:90:3f:c0:ca:64:f8:5c:1c:8d:7b:ae:
         3c:64:99:cf:64:db:af:75:bf:e0:4b:4a:e8:a6:11:8b:d9:51:
         e9:cb:9a:8a:6c:d0:c8:14:e9:e7:39:5a:af:bf:94:98:62:16:
         8b:2b:75:23:1a:f3:32:a8:e6:32:df:8e:bf:7c:7b:78:68:e4:
         8f:de:43:98
-----BEGIN CERTIFICATE-----
MIIDzzCCAregAwIBAgIBAjANBgkqhkiG9w0BAQsFADCBkzELMAkGA1UEBhMCRlIx
DzANBgNVBAgMBlJhZGl1czESMBAGA1UEBwwJU29tZXdoZXJlMRUwEwYDVQQKDAxF
eGFtcGxlIEluYy4xIDAeBgkqhkiG9w0BCQEWEWFkbWluQGV4YW1wbGUub3JnMSYw
JAYDVQQDDB1FeGFtcGxlIENlcnRpZmljYXRlIEF1dGhvcml0eTAeFw0xNjAxMjEx
MDIwMzJaFw0xNjAzMjExMDIwMzJaMHExCzAJBgNVBAYTAkZSMQ8wDQYDVQQIDAZS
YWRpdXMxFTATBgNVBAoMDEV4YW1wbGUgSW5jLjEZMBcGA1UEAwwQdXNlckBleGFt
cGxlLm9yZzEfMB0GCSqGSIb3DQEJARYQdXNlckBleGFtcGxlLm9yZzCCASIwDQYJ
KoZIhvcNAQEBBQADggEPADCCAQoCggEBAO2MEngyvRMEDWeB46YuceWTYsU6gCS0
MeWloKTqAo+gPF27oMtS2/iOvMfFwoaMfh3c4poZvEh8f1zWWVUyI/2jOl0eaWFd
mKyh9jo/ziEGK0HmFb6z54RVusW19TonMz9KuXVpcMo5/Gq0f+DqEofRUcS7TCqq
p0mkaIXEXm1+i7p1gdhfhR86pg9jB0xHNpJQY2gTPwmCgvqDGOYFzI1j80Ckerin
BJU+Au9dC+l7r2uA1IwCEnI2yG0+XCsLK4hn2z+OhvR/fX2zzutzf+Z84VVHKwdX
3NybD6SPJXcv5yusWZ/o++kMum9fxWbGOMjzpNdh4Y4Im3F/xSwx9vcCAwEAAaNP
ME0wEwYDVR0lBAwwCgYIKwYBBQUHAwIwNgYDVR0fBC8wLTAroCmgJ4YlaHR0cDov
L3d3dy5leGFtcGxlLmNvbS9leGFtcGxlX2NhLmNybDANBgkqhkiG9w0BAQsFAAOC
AQEAXapOv3mOH/U++SjONuoqmjF03da613kTbjIJeGQD36t7ClRF7E4q/gMqfd0l
GJNA7y+TlYFCzBuCLuYDgUi+nI1WM7Uea+Jpopad9c9c824qpOYVIWtdTVRUEzs5
VKLdEOGtyMMEJW2wESvTVt97T6GDGHQkdDKh5QJ06HmwBFVKuvL4oiria2Elcc7q
gvfSOrox1VlIC/M2c03vjW7mSWrclsP6hw/8f2OO8Z208uFTGf8X+KlIX0r23ZA/
wMpk+FwcjXuuPGSZz2Tbr3W/4EtK6KYRi9lR6cuaimzQyBTp5zlar7+UmGIWiyt1
IxrzMqjmMt+Ov3x7eGjkj95DmA==
-----END CERTIFICATE-----
